target datalayout = "e-m:e-p270:32:32-p271:32:32-p272:64:64-i64:64-i128:128-f80:128-n8:16:32:64-S128"
target triple = "x86_64-pc-linux-gnu"

%struct.lxb_html_tokenizer = type { ptr, ptr, ptr, ptr, ptr, ptr, ptr, ptr, ptr, ptr, ptr, ptr, ptr, ptr, ptr, i64, ptr, ptr, ptr, ptr, ptr, i64, i64, ptr, ptr, i64, i64, i32, i32, i8, i32, i32, i8, ptr, i64 }
%struct.lxb_html_token_t = type { ptr, ptr, i64, i64, ptr, ptr, ptr, ptr, ptr, i64, i64, i32 }

; Function Attrs: nounwind uwtable
define internal void @lxb_html_token_clean(ptr noundef %0) #0 {
  %2 = alloca ptr, align 8
  store ptr %0, ptr %2, align 8
  %3 = load ptr, ptr %2, align 8
  call void @llvm.memset.p0.i64(ptr align 8 %3, i8 0, i64 96, i1 false)
  ret void
}

; Function Attrs: nounwind uwtable
define internal ptr @lxb_html_tokenizer_state_after_attribute_value_quoted(ptr noundef %0, ptr noundef %1, ptr noundef %2) #0 {
  %4 = alloca ptr, align 8
  %5 = alloca ptr, align 8
  %6 = alloca ptr, align 8
  %7 = alloca ptr, align 8
  store ptr %0, ptr %5, align 8
  store ptr %1, ptr %6, align 8
  store ptr %2, ptr %7, align 8
  %8 = load ptr, ptr %6, align 8
  %9 = load i8, ptr %8, align 1
  %10 = zext i8 %9 to i32
  switch i32 %10, label %92 [
    i32 9, label %11
    i32 10, label %11
    i32 12, label %11
    i32 13, label %11
    i32 32, label %11
    i32 47, label %16
    i32 62, label %21
    i32 0, label %77
  ]

11:                                               ; preds = %3, %3, %3, %3, %3
  %12 = load ptr, ptr %5, align 8
  %13 = getelementptr inbounds %struct.lxb_html_tokenizer, ptr %12, i32 0, i32 0
  store ptr @lxb_html_tokenizer_state_before_attribute_name, ptr %13, align 8
  %14 = load ptr, ptr %6, align 8
  %15 = getelementptr inbounds i8, ptr %14, i64 1
  store ptr %15, ptr %4, align 8
  br label %101

16:                                               ; preds = %3
  %17 = load ptr, ptr %5, align 8
  %18 = getelementptr inbounds %struct.lxb_html_tokenizer, ptr %17, i32 0, i32 0
  store ptr @lxb_html_tokenizer_state_self_closing_start_tag, ptr %18, align 8
  %19 = load ptr, ptr %6, align 8
  %20 = getelementptr inbounds i8, ptr %19, i64 1
  store ptr %20, ptr %4, align 8
  br label %101

21:                                               ; preds = %3
  %22 = load ptr, ptr %5, align 8
  %23 = getelementptr inbounds %struct.lxb_html_tokenizer, ptr %22, i32 0, i32 0
  store ptr @lxb_html_tokenizer_state_data_before, ptr %23, align 8
  br label %24

24:                                               ; preds = %21
  %25 = load ptr, ptr %5, align 8
  %26 = getelementptr inbounds %struct.lxb_html_tokenizer, ptr %25, i32 0, i32 8
  %27 = load ptr, ptr %26, align 8
  %28 = getelementptr inbounds %struct.lxb_html_token_t, ptr %27, i32 0, i32 0
  %29 = load ptr, ptr %28, align 8
  %30 = load ptr, ptr %5, align 8
  %31 = getelementptr inbounds %struct.lxb_html_tokenizer, ptr %30, i32 0, i32 8
  %32 = load ptr, ptr %31, align 8
  %33 = getelementptr inbounds %struct.lxb_html_token_t, ptr %32, i32 0, i32 1
  %34 = load ptr, ptr %33, align 8
  %35 = icmp ne ptr %29, %34
  br i1 %35, label %36, label %65

36:                                               ; preds = %24
  %37 = load ptr, ptr %5, align 8
  %38 = getelementptr inbounds %struct.lxb_html_tokenizer, ptr %37, i32 0, i32 2
  %39 = load ptr, ptr %38, align 8
  %40 = load ptr, ptr %5, align 8
  %41 = load ptr, ptr %5, align 8
  %42 = getelementptr inbounds %struct.lxb_html_tokenizer, ptr %41, i32 0, i32 8
  %43 = load ptr, ptr %42, align 8
  %44 = load ptr, ptr %5, align 8
  %45 = getelementptr inbounds %struct.lxb_html_tokenizer, ptr %44, i32 0, i32 3
  %46 = load ptr, ptr %45, align 8
  %47 = call ptr %39(ptr noundef %40, ptr noundef %43, ptr noundef %46)
  %48 = load ptr, ptr %5, align 8
  %49 = getelementptr inbounds %struct.lxb_html_tokenizer, ptr %48, i32 0, i32 8
  store ptr %47, ptr %49, align 8
  %50 = load ptr, ptr %5, align 8
  %51 = getelementptr inbounds %struct.lxb_html_tokenizer, ptr %50, i32 0, i32 8
  %52 = load ptr, ptr %51, align 8
  %53 = icmp eq ptr %52, null
  br i1 %53, label %54, label %64

54:                                               ; preds = %36
  %55 = load ptr, ptr %5, align 8
  %56 = getelementptr inbounds %struct.lxb_html_tokenizer, ptr %55, i32 0, i32 31
  %57 = load i32, ptr %56, align 8
  %58 = icmp eq i32 %57, 0
  br i1 %58, label %59, label %62

59:                                               ; preds = %54
  %60 = load ptr, ptr %5, align 8
  %61 = getelementptr inbounds %struct.lxb_html_tokenizer, ptr %60, i32 0, i32 31
  store i32 1, ptr %61, align 8
  br label %62

62:                                               ; preds = %59, %54
  %63 = load ptr, ptr %7, align 8
  store ptr %63, ptr %4, align 8
  br label %101

64:                                               ; preds = %36
  br label %65

65:                                               ; preds = %64, %24
  %66 = load ptr, ptr %5, align 8
  %67 = getelementptr inbounds %struct.lxb_html_tokenizer, ptr %66, i32 0, i32 8
  %68 = load ptr, ptr %67, align 8
  call void @lxb_html_token_clean(ptr noundef %68)
  %69 = load ptr, ptr %5, align 8
  %70 = getelementptr inbounds %struct.lxb_html_tokenizer, ptr %69, i32 0, i32 16
  %71 = load ptr, ptr %70, align 8
  %72 = load ptr, ptr %5, align 8
  %73 = getelementptr inbounds %struct.lxb_html_tokenizer, ptr %72, i32 0, i32 17
  store ptr %71, ptr %73, align 8
  br label %74

74:                                               ; preds = %65
  %75 = load ptr, ptr %6, align 8
  %76 = getelementptr inbounds i8, ptr %75, i64 1
  store ptr %76, ptr %4, align 8
  br label %101

77:                                               ; preds = %3
  %78 = load ptr, ptr %5, align 8
  %79 = getelementptr inbounds %struct.lxb_html_tokenizer, ptr %78, i32 0, i32 32
  %80 = load i8, ptr %79, align 4
  %81 = trunc i8 %80 to i1
  br i1 %81, label %82, label %91

82:                                               ; preds = %77
  %83 = load ptr, ptr %5, align 8
  %84 = getelementptr inbounds %struct.lxb_html_tokenizer, ptr %83, i32 0, i32 11
  %85 = load ptr, ptr %84, align 8
  %86 = load ptr, ptr %5, align 8
  %87 = getelementptr inbounds %struct.lxb_html_tokenizer, ptr %86, i32 0, i32 20
  %88 = load ptr, ptr %87, align 8
  %89 = call ptr @lxb_html_tokenizer_error_add(ptr noundef %85, ptr noundef %88, i32 noundef 16)
  %90 = load ptr, ptr %7, align 8
  store ptr %90, ptr %4, align 8
  br label %101

91:                                               ; preds = %77
  br label %92

92:                                               ; preds = %91, %3
  %93 = load ptr, ptr %5, align 8
  %94 = getelementptr inbounds %struct.lxb_html_tokenizer, ptr %93, i32 0, i32 11
  %95 = load ptr, ptr %94, align 8
  %96 = load ptr, ptr %6, align 8
  %97 = call ptr @lxb_html_tokenizer_error_add(ptr noundef %95, ptr noundef %96, i32 noundef 32)
  %98 = load ptr, ptr %5, align 8
  %99 = getelementptr inbounds %struct.lxb_html_tokenizer, ptr %98, i32 0, i32 0
  store ptr @lxb_html_tokenizer_state_before_attribute_name, ptr %99, align 8
  %100 = load ptr, ptr %6, align 8
  store ptr %100, ptr %4, align 8
  br label %101

101:                                              ; preds = %92, %82, %74, %62, %16, %11
  %102 = load ptr, ptr %4, align 8
  ret ptr %102
}