; Function Attrs: nounwind uwtable
define internal ptr @lxb_html_tokenizer_state_after_attribute_value_quoted(ptr noundef %0, ptr noundef %1, ptr noundef readnone %2) #1 {
  %4 = load i8, ptr %1, align 1
  switch i8 %4, label %43 [
    i8 9, label %5
    i8 10, label %5
    i8 12, label %5
    i8 13, label %5
    i8 32, label %5
    i8 47, label %7
    i8 62, label %9
    i8 0, label %33
  ]

5:                                                ; preds = %3, %3, %3, %3, %3
  store ptr @lxb_html_tokenizer_state_before_attribute_name, ptr %0, align 8
  %6 = getelementptr inbounds i8, ptr %1, i64 1
  br label %47

7:                                                ; preds = %3
  store ptr @lxb_html_tokenizer_state_self_closing_start_tag, ptr %0, align 8
  %8 = getelementptr inbounds i8, ptr %1, i64 1
  br label %47

9:                                                ; preds = %3
  store ptr @lxb_html_tokenizer_state_data_before, ptr %0, align 8
  %10 = getelementptr inbounds i8, ptr %0, i64 64
  %11 = load ptr, ptr %10, align 8
  %12 = load ptr, ptr %11, align 8
  %13 = getelementptr inbounds i8, ptr %11, i64 8
  %14 = load ptr, ptr %13, align 8
  %.not30 = icmp eq ptr %12, %14
  br i1 %.not30, label %27, label %15

15:                                               ; preds = %9
  %16 = getelementptr inbounds i8, ptr %0, i64 16
  %17 = load ptr, ptr %16, align 8
  %18 = getelementptr inbounds i8, ptr %0, i64 24
  %19 = load ptr, ptr %18, align 8
  %20 = tail call ptr %17(ptr noundef nonnull %0, ptr noundef nonnull %11, ptr noundef %19) #5
  store ptr %20, ptr %10, align 8
  %21 = icmp eq ptr %20, null
  br i1 %21, label %22, label %27

22:                                               ; preds = %15
  %23 = getelementptr inbounds i8, ptr %0, i64 232
  %24 = load i32, ptr %23, align 8
  %25 = icmp eq i32 %24, 0
  br i1 %25, label %26, label %47

26:                                               ; preds = %22
  store i32 1, ptr %23, align 8
  br label %47

27:                                               ; preds = %15, %9
  %28 = phi ptr [ %20, %15 ], [ %11, %9 ]
  tail call void @llvm.memset.p0.i64(ptr noundef nonnull align 8 dereferenceable(96) %28, i8 0, i64 96, i1 false)
  %29 = getelementptr inbounds i8, ptr %0, i64 128
  %30 = load ptr, ptr %29, align 8
  %31 = getelementptr inbounds i8, ptr %0, i64 136
  store ptr %30, ptr %31, align 8
  %32 = getelementptr inbounds i8, ptr %1, i64 1
  br label %47

33:                                               ; preds = %3
  %34 = getelementptr inbounds i8, ptr %0, i64 236
  %35 = load i8, ptr %34, align 4
  %36 = and i8 %35, 1
  %.not = icmp eq i8 %36, 0
  br i1 %.not, label %43, label %37

37:                                               ; preds = %33
  %38 = getelementptr inbounds i8, ptr %0, i64 88
  %39 = load ptr, ptr %38, align 8
  %40 = getelementptr inbounds i8, ptr %0, i64 160
  %41 = load ptr, ptr %40, align 8
  %42 = tail call ptr @lxb_html_tokenizer_error_add(ptr noundef %39, ptr noundef %41, i32 noundef 16) #5
  br label %47

43:                                               ; preds = %33, %3
  %44 = getelementptr inbounds i8, ptr %0, i64 88
  %45 = load ptr, ptr %44, align 8
  %46 = tail call ptr @lxb_html_tokenizer_error_add(ptr noundef %45, ptr noundef nonnull %1, i32 noundef 32) #5
  store ptr @lxb_html_tokenizer_state_before_attribute_name, ptr %0, align 8
  br label %47

47:                                               ; preds = %22, %26, %43, %37, %27, %7, %5
  %.0 = phi ptr [ %1, %43 ], [ %2, %37 ], [ %32, %27 ], [ %8, %7 ], [ %6, %5 ], [ %2, %26 ], [ %2, %22 ]
  ret ptr %.0
}